; ModuleID = '57/495.c'
source_filename = "57/495.c"
target datalayout = "e-m:e-p270:32:32-p271:32:32-p272:64:64-i64:64-f80:128-n8:16:32:64-S128"
target triple = "x86_64-pc-linux-gnu"

@.str = private unnamed_addr constant [3 x i8] c"%d\00", align 1
@.str.1 = private unnamed_addr constant [3 x i8] c"%s\00", align 1
@.str.2 = private unnamed_addr constant [4 x i8] c"%s\0A\00", align 1

; Function Attrs: noinline nounwind uwtable
define dso_local i32 @main() #0 {
  %1 = alloca i32, align 4
  %2 = alloca [32 x i8], align 16
  %3 = alloca i32, align 4
  %4 = alloca i32, align 4
  %5 = alloca i32, align 4
  %6 = alloca i32, align 4
  store i32 0, i32* %1, align 4
  %7 = call i32 (i8*, ...) @__isoc99_scanf(i8* getelementptr inbounds ([3 x i8], [3 x i8]* @.str, i64 0, i64 0), i32* %3)
  store i32 0, i32* %4, align 4
  br label %8

8:                                                ; preds = %62, %0
  %9 = load i32, i32* %4, align 4
  %10 = load i32, i32* %3, align 4
  %11 = sub nsw i32 %10, 1
  %12 = icmp sle i32 %9, %11
  br i1 %12, label %13, label %65

13:                                               ; preds = %8
  store i32 0, i32* %6, align 4
  br label %14

14:                                               ; preds = %21, %13
  %15 = load i32, i32* %6, align 4
  %16 = icmp sle i32 %15, 31
  br i1 %16, label %17, label %24

17:                                               ; preds = %14
  %18 = load i32, i32* %6, align 4
  %19 = sext i32 %18 to i64
  %20 = getelementptr inbounds [32 x i8], [32 x i8]* %2, i64 0, i64 %19
  store i8 0, i8* %20, align 1
  br label %21

21:                                               ; preds = %17
  %22 = load i32, i32* %6, align 4
  %23 = add nsw i32 %22, 1
  store i32 %23, i32* %6, align 4
  br label %14

24:                                               ; preds = %14
  %25 = getelementptr inbounds [32 x i8], [32 x i8]* %2, i64 0, i64 0
  %26 = call i32 (i8*, ...) @__isoc99_scanf(i8* getelementptr inbounds ([3 x i8], [3 x i8]* @.str.1, i64 0, i64 0), i8* %25)
  %27 = getelementptr inbounds [32 x i8], [32 x i8]* %2, i64 0, i64 0
  %28 = call i64 @strlen(i8* %27) #3
  %29 = trunc i64 %28 to i32
  store i32 %29, i32* %5, align 4
  %30 = load i32, i32* %5, align 4
  %31 = sub nsw i32 %30, 3
  %32 = sext i32 %31 to i64
  %33 = getelementptr inbounds [32 x i8], [32 x i8]* %2, i64 0, i64 %32
  %34 = load i8, i8* %33, align 1
  %35 = sext i8 %34 to i32
  %36 = icmp eq i32 %35, 105
  br i1 %36, label %37, label %40

37:                                               ; preds = %24
  %38 = getelementptr inbounds [32 x i8], [32 x i8]* %2, i64 0, i64 0
  %39 = load i32, i32* %5, align 4
  call void @cut1(i8* %38, i32 %39)
  br label %40

40:                                               ; preds = %37, %24
  %41 = load i32, i32* %5, align 4
  %42 = sub nsw i32 %41, 2
  %43 = sext i32 %42 to i64
  %44 = getelementptr inbounds [32 x i8], [32 x i8]* %2, i64 0, i64 %43
  %45 = load i8, i8* %44, align 1
  %46 = sext i8 %45 to i32
  %47 = icmp eq i32 %46, 108
  br i1 %47, label %56, label %48

48:                                               ; preds = %40
  %49 = load i32, i32* %5, align 4
  %50 = sub nsw i32 %49, 2
  %51 = sext i32 %50 to i64
  %52 = getelementptr inbounds [32 x i8], [32 x i8]* %2, i64 0, i64 %51
  %53 = load i8, i8* %52, align 1
  %54 = sext i8 %53 to i32
  %55 = icmp eq i32 %54, 101
  br i1 %55, label %56, label %59

56:                                               ; preds = %48, %40
  %57 = getelementptr inbounds [32 x i8], [32 x i8]* %2, i64 0, i64 0
  %58 = load i32, i32* %5, align 4
  call void @cut2(i8* %57, i32 %58)
  br label %59

59:                                               ; preds = %56, %48
  %60 = getelementptr inbounds [32 x i8], [32 x i8]* %2, i64 0, i64 0
  %61 = call i32 (i8*, ...) @printf(i8* getelementptr inbounds ([4 x i8], [4 x i8]* @.str.2, i64 0, i64 0), i8* %60)
  br label %62

62:                                               ; preds = %59
  %63 = load i32, i32* %4, align 4
  %64 = add nsw i32 %63, 1
  store i32 %64, i32* %4, align 4
  br label %8

65:                                               ; preds = %8
  ret i32 0
}

declare dso_local i32 @__isoc99_scanf(i8*, ...) #1

; Function Attrs: nounwind readonly
declare dso_local i64 @strlen(i8*) #2

; Function Attrs: noinline nounwind uwtable
define dso_local void @cut1(i8* %0, i32 %1) #0 {
  %3 = alloca i8*, align 8
  %4 = alloca i32, align 4
  store i8* %0, i8** %3, align 8
  store i32 %1, i32* %4, align 4
  %5 = load i8*, i8** %3, align 8
  %6 = load i32, i32* %4, align 4
  %7 = sub nsw i32 %6, 3
  %8 = sext i32 %7 to i64
  %9 = getelementptr inbounds i8, i8* %5, i64 %8
  store i8 0, i8* %9, align 1
  ret void
}

; Function Attrs: noinline nounwind uwtable
define dso_local void @cut2(i8* %0, i32 %1) #0 {
  %3 = alloca i8*, align 8
  %4 = alloca i32, align 4
  store i8* %0, i8** %3, align 8
  store i32 %1, i32* %4, align 4
  %5 = load i8*, i8** %3, align 8
  %6 = load i32, i32* %4, align 4
  %7 = sub nsw i32 %6, 2
  %8 = sext i32 %7 to i64
  %9 = getelementptr inbounds i8, i8* %5, i64 %8
  store i8 0, i8* %9, align 1
  ret void
}

declare dso_local i32 @printf(i8*, ...) #1


!llvm.module.flags = !{!0}
!llvm.ident = !{!1}

!0 = !{i32 1, !"wchar_size", i32 4}
!1 = !{!"clang version 10.0.0-4ubuntu1 "}
